target datalayout = "e-m:e-p270:32:32-p271:32:32-p272:64:64-i64:64-i128:128-f80:128-n8:16:32:64-S128"
target triple = "x86_64-pc-linux-gnu"

%"class.std::__cxx11::basic_string" = type { %"struct.std::__cxx11::basic_string<char>::_Alloc_hider", i64, %union.anon }
%"struct.std::__cxx11::basic_string<char>::_Alloc_hider" = type { ptr }
%union.anon = type { i64, [8 x i8] }
%struct.pj_ctx = type <{ %"class.std::__cxx11::basic_string", i32, i32, i8, i8, [6 x i8], ptr, ptr, ptr, i32, i8, [3 x i8], i32, [4 x i8], %"class.std::__cxx11::basic_string", %"class.std::vector", ptr, ptr, ptr, %"class.std::map", i8, [7 x i8], %struct.projFileApiCallbackAndData, %"class.std::__cxx11::basic_string", %"class.std::__cxx11::basic_string", i8, [7 x i8], %"class.std::__cxx11::basic_string", %struct.projNetworkCallbacksAndData, %"class.std::__cxx11::basic_string", i8, [7 x i8], %struct.projGridChunkCache, i32, i32, i32, [4 x i8] }>
%"class.std::vector" = type { %"struct.std::_Vector_base" }
%"struct.std::_Vector_base" = type { %"struct.std::_Vector_base<std::__cxx11::basic_string<char>, std::allocator<std::__cxx11::basic_string<char>>>::_Vector_impl" }
%"struct.std::_Vector_base<std::__cxx11::basic_string<char>, std::allocator<std::__cxx11::basic_string<char>>>::_Vector_impl" = type { %"struct.std::_Vector_base<std::__cxx11::basic_string<char>, std::allocator<std::__cxx11::basic_string<char>>>::_Vector_impl_data" }
%"struct.std::_Vector_base<std::__cxx11::basic_string<char>, std::allocator<std::__cxx11::basic_string<char>>>::_Vector_impl_data" = type { ptr, ptr, ptr }
%"class.std::map" = type { %"class.std::_Rb_tree" }
%"class.std::_Rb_tree" = type { %"struct.std::_Rb_tree<std::__cxx11::basic_string<char>, std::pair<const std::__cxx11::basic_string<char>, std::__cxx11::basic_string<char>>, std::_Select1st<std::pair<const std::__cxx11::basic_string<char>, std::__cxx11::basic_string<char>>>, std::less<std::__cxx11::basic_string<char>>>::_Rb_tree_impl" }
%"struct.std::_Rb_tree<std::__cxx11::basic_string<char>, std::pair<const std::__cxx11::basic_string<char>, std::__cxx11::basic_string<char>>, std::_Select1st<std::pair<const std::__cxx11::basic_string<char>, std::__cxx11::basic_string<char>>>, std::less<std::__cxx11::basic_string<char>>>::_Rb_tree_impl" = type { [8 x i8], %"struct.std::_Rb_tree_header" }
%"struct.std::_Rb_tree_header" = type { %"struct.std::_Rb_tree_node_base", i64 }
%"struct.std::_Rb_tree_node_base" = type { i32, ptr, ptr, ptr }
%struct.projFileApiCallbackAndData = type { ptr, ptr, ptr, ptr, ptr, ptr, ptr, ptr, ptr, ptr, ptr }
%struct.projNetworkCallbacksAndData = type { i8, ptr, ptr, ptr, ptr, ptr }
%struct.projGridChunkCache = type <{ i8, [7 x i8], %"class.std::__cxx11::basic_string", i64, i32, [4 x i8] }>
%struct.PROJ_FILE_API = type { i32, ptr, ptr, ptr, ptr, ptr, ptr, ptr, ptr, ptr, ptr }

; Function Attrs: mustprogress uwtable
define i32 @proj_context_set_fileapi(ptr noundef %0, ptr noundef %1, ptr noundef %2) #0 {
  %4 = alloca i32, align 4
  %5 = alloca ptr, align 8
  %6 = alloca ptr, align 8
  %7 = alloca ptr, align 8
  store ptr %0, ptr %5, align 8, !tbaa !44
  store ptr %1, ptr %6, align 8, !tbaa !97
  store ptr %2, ptr %7, align 8, !tbaa !38
  %8 = load ptr, ptr %5, align 8, !tbaa !44
  %9 = icmp eq ptr %8, null
  br i1 %9, label %10, label %12

10:                                               ; preds = %3
  %11 = call noundef ptr @_Z18pj_get_default_ctxv()
  store ptr %11, ptr %5, align 8, !tbaa !44
  br label %12

12:                                               ; preds = %10, %3
  %13 = load ptr, ptr %6, align 8, !tbaa !97
  %14 = icmp ne ptr %13, null
  br i1 %14, label %16, label %15

15:                                               ; preds = %12
  store i32 0, ptr %4, align 4
  br label %138

16:                                               ; preds = %12
  %17 = load ptr, ptr %6, align 8, !tbaa !97
  %18 = getelementptr inbounds nuw %struct.PROJ_FILE_API, ptr %17, i32 0, i32 0
  %19 = load i32, ptr %18, align 8, !tbaa !99
  %20 = icmp ne i32 %19, 1
  br i1 %20, label %21, label %22

21:                                               ; preds = %16
  store i32 0, ptr %4, align 4
  br label %138

22:                                               ; preds = %16
  %23 = load ptr, ptr %6, align 8, !tbaa !97
  %24 = getelementptr inbounds nuw %struct.PROJ_FILE_API, ptr %23, i32 0, i32 1
  %25 = load ptr, ptr %24, align 8, !tbaa !101
  %26 = icmp ne ptr %25, null
  br i1 %26, label %27, label %72

27:                                               ; preds = %22
  %28 = load ptr, ptr %6, align 8, !tbaa !97
  %29 = getelementptr inbounds nuw %struct.PROJ_FILE_API, ptr %28, i32 0, i32 6
  %30 = load ptr, ptr %29, align 8, !tbaa !102
  %31 = icmp ne ptr %30, null
  br i1 %31, label %32, label %72

32:                                               ; preds = %27
  %33 = load ptr, ptr %6, align 8, !tbaa !97
  %34 = getelementptr inbounds nuw %struct.PROJ_FILE_API, ptr %33, i32 0, i32 2
  %35 = load ptr, ptr %34, align 8, !tbaa !103
  %36 = icmp ne ptr %35, null
  br i1 %36, label %37, label %72

37:                                               ; preds = %32
  %38 = load ptr, ptr %6, align 8, !tbaa !97
  %39 = getelementptr inbounds nuw %struct.PROJ_FILE_API, ptr %38, i32 0, i32 3
  %40 = load ptr, ptr %39, align 8, !tbaa !104
  %41 = icmp ne ptr %40, null
  br i1 %41, label %42, label %72

42:                                               ; preds = %37
  %43 = load ptr, ptr %6, align 8, !tbaa !97
  %44 = getelementptr inbounds nuw %struct.PROJ_FILE_API, ptr %43, i32 0, i32 4
  %45 = load ptr, ptr %44, align 8, !tbaa !105
  %46 = icmp ne ptr %45, null
  br i1 %46, label %47, label %72

47:                                               ; preds = %42
  %48 = load ptr, ptr %6, align 8, !tbaa !97
  %49 = getelementptr inbounds nuw %struct.PROJ_FILE_API, ptr %48, i32 0, i32 5
  %50 = load ptr, ptr %49, align 8, !tbaa !106
  %51 = icmp ne ptr %50, null
  br i1 %51, label %52, label %72

52:                                               ; preds = %47
  %53 = load ptr, ptr %6, align 8, !tbaa !97
  %54 = getelementptr inbounds nuw %struct.PROJ_FILE_API, ptr %53, i32 0, i32 7
  %55 = load ptr, ptr %54, align 8, !tbaa !107
  %56 = icmp ne ptr %55, null
  br i1 %56, label %57, label %72

57:                                               ; preds = %52
  %58 = load ptr, ptr %6, align 8, !tbaa !97
  %59 = getelementptr inbounds nuw %struct.PROJ_FILE_API, ptr %58, i32 0, i32 8
  %60 = load ptr, ptr %59, align 8, !tbaa !108
  %61 = icmp ne ptr %60, null
  br i1 %61, label %62, label %72

62:                                               ; preds = %57
  %63 = load ptr, ptr %6, align 8, !tbaa !97
  %64 = getelementptr inbounds nuw %struct.PROJ_FILE_API, ptr %63, i32 0, i32 9
  %65 = load ptr, ptr %64, align 8, !tbaa !109
  %66 = icmp ne ptr %65, null
  br i1 %66, label %67, label %72

67:                                               ; preds = %62
  %68 = load ptr, ptr %6, align 8, !tbaa !97
  %69 = getelementptr inbounds nuw %struct.PROJ_FILE_API, ptr %68, i32 0, i32 10
  %70 = load ptr, ptr %69, align 8, !tbaa !110
  %71 = icmp ne ptr %70, null
  br i1 %71, label %73, label %72

72:                                               ; preds = %67, %62, %57, %52, %47, %42, %37, %32, %27, %22
  store i32 0, ptr %4, align 4
  br label %138

73:                                               ; preds = %67
  %74 = load ptr, ptr %6, align 8, !tbaa !97
  %75 = getelementptr inbounds nuw %struct.PROJ_FILE_API, ptr %74, i32 0, i32 1
  %76 = load ptr, ptr %75, align 8, !tbaa !101
  %77 = load ptr, ptr %5, align 8, !tbaa !44
  %78 = getelementptr inbounds nuw %struct.pj_ctx, ptr %77, i32 0, i32 22
  %79 = getelementptr inbounds nuw %struct.projFileApiCallbackAndData, ptr %78, i32 0, i32 0
  store ptr %76, ptr %79, align 8, !tbaa !87
  %80 = load ptr, ptr %6, align 8, !tbaa !97
  %81 = getelementptr inbounds nuw %struct.PROJ_FILE_API, ptr %80, i32 0, i32 6
  %82 = load ptr, ptr %81, align 8, !tbaa !102
  %83 = load ptr, ptr %5, align 8, !tbaa !44
  %84 = getelementptr inbounds nuw %struct.pj_ctx, ptr %83, i32 0, i32 22
  %85 = getelementptr inbounds nuw %struct.projFileApiCallbackAndData, ptr %84, i32 0, i32 5
  store ptr %82, ptr %85, align 8, !tbaa !57
  %86 = load ptr, ptr %6, align 8, !tbaa !97
  %87 = getelementptr inbounds nuw %struct.PROJ_FILE_API, ptr %86, i32 0, i32 2
  %88 = load ptr, ptr %87, align 8, !tbaa !103
  %89 = load ptr, ptr %5, align 8, !tbaa !44
  %90 = getelementptr inbounds nuw %struct.pj_ctx, ptr %89, i32 0, i32 22
  %91 = getelementptr inbounds nuw %struct.projFileApiCallbackAndData, ptr %90, i32 0, i32 1
  store ptr %88, ptr %91, align 8, !tbaa !81
  %92 = load ptr, ptr %6, align 8, !tbaa !97
  %93 = getelementptr inbounds nuw %struct.PROJ_FILE_API, ptr %92, i32 0, i32 3
  %94 = load ptr, ptr %93, align 8, !tbaa !104
  %95 = load ptr, ptr %5, align 8, !tbaa !44
  %96 = getelementptr inbounds nuw %struct.pj_ctx, ptr %95, i32 0, i32 22
  %97 = getelementptr inbounds nuw %struct.projFileApiCallbackAndData, ptr %96, i32 0, i32 2
  store ptr %94, ptr %97, align 8, !tbaa !82
  %98 = load ptr, ptr %6, align 8, !tbaa !97
  %99 = getelementptr inbounds nuw %struct.PROJ_FILE_API, ptr %98, i32 0, i32 4
  %100 = load ptr, ptr %99, align 8, !tbaa !105
  %101 = load ptr, ptr %5, align 8, !tbaa !44
  %102 = getelementptr inbounds nuw %struct.pj_ctx, ptr %101, i32 0, i32 22
  %103 = getelementptr inbounds nuw %struct.projFileApiCallbackAndData, ptr %102, i32 0, i32 3
  store ptr %100, ptr %103, align 8, !tbaa !83
  %104 = load ptr, ptr %6, align 8, !tbaa !97
  %105 = getelementptr inbounds nuw %struct.PROJ_FILE_API, ptr %104, i32 0, i32 5
  %106 = load ptr, ptr %105, align 8, !tbaa !106
  %107 = load ptr, ptr %5, align 8, !tbaa !44
  %108 = getelementptr inbounds nuw %struct.pj_ctx, ptr %107, i32 0, i32 22
  %109 = getelementptr inbounds nuw %struct.projFileApiCallbackAndData, ptr %108, i32 0, i32 4
  store ptr %106, ptr %109, align 8, !tbaa !84
  %110 = load ptr, ptr %6, align 8, !tbaa !97
  %111 = getelementptr inbounds nuw %struct.PROJ_FILE_API, ptr %110, i32 0, i32 7
  %112 = load ptr, ptr %111, align 8, !tbaa !107
  %113 = load ptr, ptr %5, align 8, !tbaa !44
  %114 = getelementptr inbounds nuw %struct.pj_ctx, ptr %113, i32 0, i32 22
  %115 = getelementptr inbounds nuw %struct.projFileApiCallbackAndData, ptr %114, i32 0, i32 6
  store ptr %112, ptr %115, align 8, !tbaa !93
  %116 = load ptr, ptr %6, align 8, !tbaa !97
  %117 = getelementptr inbounds nuw %struct.PROJ_FILE_API, ptr %116, i32 0, i32 8
  %118 = load ptr, ptr %117, align 8, !tbaa !108
  %119 = load ptr, ptr %5, align 8, !tbaa !44
  %120 = getelementptr inbounds nuw %struct.pj_ctx, ptr %119, i32 0, i32 22
  %121 = getelementptr inbounds nuw %struct.projFileApiCallbackAndData, ptr %120, i32 0, i32 7
  store ptr %118, ptr %121, align 8, !tbaa !94
  %122 = load ptr, ptr %6, align 8, !tbaa !97
  %123 = getelementptr inbounds nuw %struct.PROJ_FILE_API, ptr %122, i32 0, i32 9
  %124 = load ptr, ptr %123, align 8, !tbaa !109
  %125 = load ptr, ptr %5, align 8, !tbaa !44
  %126 = getelementptr inbounds nuw %struct.pj_ctx, ptr %125, i32 0, i32 22
  %127 = getelementptr inbounds nuw %struct.projFileApiCallbackAndData, ptr %126, i32 0, i32 8
  store ptr %124, ptr %127, align 8, !tbaa !95
  %128 = load ptr, ptr %6, align 8, !tbaa !97
  %129 = getelementptr inbounds nuw %struct.PROJ_FILE_API, ptr %128, i32 0, i32 10
  %130 = load ptr, ptr %129, align 8, !tbaa !110
  %131 = load ptr, ptr %5, align 8, !tbaa !44
  %132 = getelementptr inbounds nuw %struct.pj_ctx, ptr %131, i32 0, i32 22
  %133 = getelementptr inbounds nuw %struct.projFileApiCallbackAndData, ptr %132, i32 0, i32 9
  store ptr %130, ptr %133, align 8, !tbaa !96
  %134 = load ptr, ptr %7, align 8, !tbaa !38
  %135 = load ptr, ptr %5, align 8, !tbaa !44
  %136 = getelementptr inbounds nuw %struct.pj_ctx, ptr %135, i32 0, i32 22
  %137 = getelementptr inbounds nuw %struct.projFileApiCallbackAndData, ptr %136, i32 0, i32 10
  store ptr %134, ptr %137, align 8, !tbaa !80
  store i32 1, ptr %4, align 4
  br label %138

138:                                              ; preds = %73, %72, %21, %15
  %139 = load i32, ptr %4, align 4
  ret i32 %139
}