; Function Attrs: mustprogress uwtable
define range(i32 0, 2) i32 @proj_context_set_fileapi(ptr noundef writeonly %0, ptr noundef readonly %1, ptr noundef %2) local_unnamed_addr #0 {
  %4 = icmp eq ptr %0, null
  br i1 %4, label %5, label %7

5:                                                ; preds = %3
  %6 = tail call noundef ptr @_Z18pj_get_default_ctxv()
  br label %7

7:                                                ; preds = %5, %3
  %.035 = phi ptr [ %6, %5 ], [ %0, %3 ]
  %.not = icmp eq ptr %1, null
  br i1 %.not, label %52, label %8

8:                                                ; preds = %7
  %9 = load i32, ptr %1, align 8, !tbaa !92
  %.not39 = icmp eq i32 %9, 1
  br i1 %.not39, label %10, label %52

10:                                               ; preds = %8
  %11 = getelementptr inbounds nuw i8, ptr %1, i64 8
  %12 = load ptr, ptr %11, align 8, !tbaa !94
  %.not40 = icmp eq ptr %12, null
  br i1 %.not40, label %52, label %13

13:                                               ; preds = %10
  %14 = getelementptr inbounds nuw i8, ptr %1, i64 48
  %15 = load ptr, ptr %14, align 8, !tbaa !95
  %.not41 = icmp eq ptr %15, null
  br i1 %.not41, label %52, label %16

16:                                               ; preds = %13
  %17 = getelementptr inbounds nuw i8, ptr %1, i64 16
  %18 = load ptr, ptr %17, align 8, !tbaa !96
  %.not42 = icmp eq ptr %18, null
  br i1 %.not42, label %52, label %19

19:                                               ; preds = %16
  %20 = getelementptr inbounds nuw i8, ptr %1, i64 24
  %21 = load ptr, ptr %20, align 8, !tbaa !97
  %.not43 = icmp eq ptr %21, null
  br i1 %.not43, label %52, label %22

22:                                               ; preds = %19
  %23 = getelementptr inbounds nuw i8, ptr %1, i64 32
  %24 = load ptr, ptr %23, align 8, !tbaa !98
  %.not44 = icmp eq ptr %24, null
  br i1 %.not44, label %52, label %25

25:                                               ; preds = %22
  %26 = getelementptr inbounds nuw i8, ptr %1, i64 40
  %27 = load ptr, ptr %26, align 8, !tbaa !99
  %.not45 = icmp eq ptr %27, null
  br i1 %.not45, label %52, label %28

28:                                               ; preds = %25
  %29 = getelementptr inbounds nuw i8, ptr %1, i64 56
  %30 = load ptr, ptr %29, align 8, !tbaa !100
  %.not46 = icmp eq ptr %30, null
  br i1 %.not46, label %52, label %31

31:                                               ; preds = %28
  %32 = getelementptr inbounds nuw i8, ptr %1, i64 64
  %33 = load ptr, ptr %32, align 8, !tbaa !101
  %.not47 = icmp eq ptr %33, null
  br i1 %.not47, label %52, label %34

34:                                               ; preds = %31
  %35 = getelementptr inbounds nuw i8, ptr %1, i64 72
  %36 = load ptr, ptr %35, align 8, !tbaa !102
  %.not48 = icmp eq ptr %36, null
  br i1 %.not48, label %52, label %37

37:                                               ; preds = %34
  %38 = getelementptr inbounds nuw i8, ptr %1, i64 80
  %39 = load ptr, ptr %38, align 8, !tbaa !103
  %.not49 = icmp eq ptr %39, null
  br i1 %.not49, label %52, label %40

40:                                               ; preds = %37
  %41 = getelementptr inbounds nuw i8, ptr %.035, i64 224
  store ptr %12, ptr %41, align 8, !tbaa !85
  %42 = getelementptr inbounds nuw i8, ptr %.035, i64 264
  store ptr %15, ptr %42, align 8, !tbaa !54
  %43 = getelementptr inbounds nuw i8, ptr %.035, i64 232
  store ptr %18, ptr %43, align 8, !tbaa !81
  %44 = getelementptr inbounds nuw i8, ptr %.035, i64 240
  store ptr %21, ptr %44, align 8, !tbaa !82
  %45 = getelementptr inbounds nuw i8, ptr %.035, i64 248
  store ptr %24, ptr %45, align 8, !tbaa !83
  %46 = getelementptr inbounds nuw i8, ptr %.035, i64 256
  store ptr %27, ptr %46, align 8, !tbaa !84
  %47 = getelementptr inbounds nuw i8, ptr %.035, i64 272
  store ptr %30, ptr %47, align 8, !tbaa !88
  %48 = getelementptr inbounds nuw i8, ptr %.035, i64 280
  store ptr %33, ptr %48, align 8, !tbaa !89
  %49 = getelementptr inbounds nuw i8, ptr %.035, i64 288
  store ptr %36, ptr %49, align 8, !tbaa !90
  %50 = getelementptr inbounds nuw i8, ptr %.035, i64 296
  store ptr %39, ptr %50, align 8, !tbaa !91
  %51 = getelementptr inbounds nuw i8, ptr %.035, i64 304
  store ptr %2, ptr %51, align 8, !tbaa !80
  br label %52

52:                                               ; preds = %10, %13, %16, %19, %22, %25, %28, %31, %34, %37, %8, %7, %40
  %.0 = phi i32 [ 1, %40 ], [ 0, %7 ], [ 0, %8 ], [ 0, %37 ], [ 0, %34 ], [ 0, %31 ], [ 0, %28 ], [ 0, %25 ], [ 0, %22 ], [ 0, %19 ], [ 0, %16 ], [ 0, %13 ], [ 0, %10 ]
  ret i32 %.0
}